target datalayout = "e-m:e-p270:32:32-p271:32:32-p272:64:64-i64:64-i128:128-f80:128-n8:16:32:64-S128"
target triple = "x86_64-pc-linux-gnu"

%struct.expert_field = type { i32, i32 }
%struct._packet_info = type { ptr, ptr, i32, i32, %struct.nstime_t, %struct.nstime_t, %struct.nstime_t, i8, ptr, ptr, ptr, ptr, %struct._address, %struct._address, %struct._address, %struct._address, %struct._address, %struct._address, i32, ptr, i8, [3 x i8], %struct.anon, i32, i32, i32, i32, ptr, i8, ptr, ptr, i16, i16, i32, i32, i16, i32, i32, ptr, ptr, ptr, i8, i8, i16, i16, i16, i32, i16, i16, ptr, ptr, ptr, ptr, ptr, i32, i32 }
%struct.nstime_t = type { i64, i32 }
%struct._address = type { i32, i32, ptr, ptr }
%struct.anon = type { i8, [3 x i8] }
%struct.mncp_rhash_value = type { i32 }
%struct.mncp_rhash_key = type { ptr, i32, i8 }

@ei_ncp_new_server_session = internal global %struct.expert_field zeroinitializer, align 4
@ncp_echo_conn = external global i8, align 1
@.str.307 = private unnamed_addr constant [52 x i8] c"Detected New Server Session. Connection %d, Task %d\00", align 1
@mncp_rhash = internal global ptr null, align 8

; Function Attrs: null_pointer_is_valid sspstrong uwtable
define internal ptr @mncp_hash_insert(ptr noundef %0, i32 noundef %1, i8 noundef zeroext %2, ptr noundef %3) #0 {
  %5 = alloca ptr, align 8
  %6 = alloca i32, align 4
  %7 = alloca i8, align 1
  %8 = alloca ptr, align 8
  %9 = alloca ptr, align 8
  %10 = alloca ptr, align 8
  store ptr %0, ptr %5, align 8
  store i32 %1, ptr %6, align 4
  store i8 %2, ptr %7, align 1
  store ptr %3, ptr %8, align 8
  call void @llvm.lifetime.start.p0(i64 8, ptr %9) #8
  call void @llvm.lifetime.start.p0(i64 8, ptr %10) #8
  %11 = call ptr @wmem_file_scope()
  %12 = call noalias ptr @wmem_alloc(ptr noundef %11, i64 noundef 16) #9
  store ptr %12, ptr %9, align 8
  %13 = load ptr, ptr %5, align 8
  %14 = load ptr, ptr %9, align 8
  %15 = getelementptr inbounds nuw %struct.mncp_rhash_key, ptr %14, i32 0, i32 0
  store ptr %13, ptr %15, align 8
  %16 = load i32, ptr %6, align 4
  %17 = load ptr, ptr %9, align 8
  %18 = getelementptr inbounds nuw %struct.mncp_rhash_key, ptr %17, i32 0, i32 1
  store i32 %16, ptr %18, align 8
  %19 = load i8, ptr %7, align 1
  %20 = load ptr, ptr %9, align 8
  %21 = getelementptr inbounds nuw %struct.mncp_rhash_key, ptr %20, i32 0, i32 2
  store i8 %19, ptr %21, align 4
  %22 = call ptr @wmem_file_scope()
  %23 = call noalias ptr @wmem_alloc(ptr noundef %22, i64 noundef 4) #9
  store ptr %23, ptr %10, align 8
  %24 = load ptr, ptr @mncp_rhash, align 8
  %25 = load ptr, ptr %9, align 8
  %26 = load ptr, ptr %10, align 8
  %27 = call i32 @g_hash_table_insert(ptr noundef %24, ptr noundef %25, ptr noundef %26)
  %28 = load i8, ptr @ncp_echo_conn, align 1, !range !6, !noundef !7
  %29 = trunc i8 %28 to i1
  br i1 %29, label %30, label %44

30:                                               ; preds = %4
  %31 = load i32, ptr %6, align 4
  %32 = icmp ne i32 %31, 65535
  br i1 %32, label %33, label %44

33:                                               ; preds = %30
  %34 = load ptr, ptr %8, align 8
  %35 = load i32, ptr %6, align 4
  %36 = load i8, ptr %7, align 1
  %37 = zext i8 %36 to i32
  %38 = call ptr (ptr, ptr, ptr, ptr, ...) @expert_add_info_format(ptr noundef %34, ptr noundef null, ptr noundef @ei_ncp_new_server_session, ptr noundef @.str.307, i32 noundef %35, i32 noundef %37)
  %39 = load ptr, ptr %8, align 8
  %40 = getelementptr inbounds nuw %struct._packet_info, ptr %39, i32 0, i32 3
  %41 = load i32, ptr %40, align 4
  %42 = load ptr, ptr %10, align 8
  %43 = getelementptr inbounds nuw %struct.mncp_rhash_value, ptr %42, i32 0, i32 0
  store i32 %41, ptr %43, align 4
  br label %44

44:                                               ; preds = %33, %30, %4
  %45 = load ptr, ptr %10, align 8
  call void @llvm.lifetime.end.p0(i64 8, ptr %10) #8
  call void @llvm.lifetime.end.p0(i64 8, ptr %9) #8
  ret ptr %45
}