; Function Attrs: null_pointer_is_valid sspstrong uwtable
define internal fastcc void @mncp_hash_insert(ptr noundef %0, i32 noundef range(i32 0, 65536) %1, i8 noundef zeroext %2, ptr noundef %3) unnamed_addr #0 {
  %5 = tail call ptr @wmem_file_scope()
  %6 = tail call noalias dereferenceable_or_null(16) ptr @wmem_alloc(ptr noundef %5, i64 noundef 16) #8
  store ptr %0, ptr %6, align 8
  %7 = getelementptr inbounds nuw i8, ptr %6, i64 8
  store i32 %1, ptr %7, align 8
  %8 = getelementptr inbounds nuw i8, ptr %6, i64 12
  store i8 %2, ptr %8, align 4
  %9 = tail call ptr @wmem_file_scope()
  %10 = tail call noalias dereferenceable_or_null(4) ptr @wmem_alloc(ptr noundef %9, i64 noundef 4) #8
  %11 = load ptr, ptr @mncp_rhash, align 8
  %12 = tail call i32 @g_hash_table_insert(ptr noundef %11, ptr noundef %6, ptr noundef %10)
  %13 = load i8, ptr @ncp_echo_conn, align 1, !range !6, !noundef !7
  %14 = trunc nuw i8 %13 to i1
  %15 = icmp ne i32 %1, 65535
  %or.cond = and i1 %15, %14
  br i1 %or.cond, label %16, label %21

16:                                               ; preds = %4
  %17 = zext i8 %2 to i32
  %18 = tail call ptr (ptr, ptr, ptr, ptr, ...) @expert_add_info_format(ptr noundef %3, ptr noundef null, ptr noundef nonnull @ei_ncp_new_server_session, ptr noundef nonnull @.str.307, i32 noundef %1, i32 noundef %17)
  %19 = getelementptr inbounds nuw i8, ptr %3, i64 20
  %20 = load i32, ptr %19, align 4
  store i32 %20, ptr %10, align 4
  br label %21

21:                                               ; preds = %16, %4
  ret void
}